target datalayout = "e-m:e-p270:32:32-p271:32:32-p272:64:64-i64:64-i128:128-f80:128-n8:16:32:64-S128"
target triple = "x86_64-pc-linux-gnu"

%struct.buf_t = type { i32, ptr, i32, i32, i8, i8 }

@.str = private unnamed_addr constant [41 x i8] c"%s: Buffer size limit exceeded (%u > %u)\00", align 1
@.str.1 = private unnamed_addr constant [7 x i8] c"pack.c\00", align 1
@__func__.try_init_buf = private unnamed_addr constant [13 x i8] c"try_init_buf\00", align 1
@.str.9 = private unnamed_addr constant [44 x i8] c"%s: Unable to allocate memory for %zu bytes\00", align 1
@.str.10 = private unnamed_addr constant [43 x i8] c"%s: Unable to allocate memory for %u bytes\00", align 1

; Function Attrs: nounwind uwtable
define dso_local ptr @try_init_buf(i32 noundef %0) #0 {
  %2 = alloca ptr, align 8
  %3 = alloca i32, align 4
  %4 = alloca ptr, align 8
  %5 = alloca i32, align 4
  store i32 %0, ptr %3, align 4
  call void @llvm.lifetime.start.p0(i64 8, ptr %4) #9
  %6 = load i32, ptr %3, align 4
  %7 = icmp ne i32 %6, 0
  br i1 %7, label %9, label %8

8:                                                ; preds = %1
  store i32 16384, ptr %3, align 4
  br label %9

9:                                                ; preds = %8, %1
  %10 = load i32, ptr %3, align 4
  %11 = icmp ugt i32 %10, -65536
  br i1 %11, label %12, label %15

12:                                               ; preds = %9
  %13 = load i32, ptr %3, align 4
  %14 = call i32 (ptr, ...) @error(ptr noundef @.str, ptr noundef @__func__.try_init_buf, i32 noundef %13, i32 noundef -65536)
  store ptr null, ptr %2, align 8
  store i32 1, ptr %5, align 4
  br label %45

15:                                               ; preds = %9
  %16 = call ptr @slurm_xcalloc(i64 noundef 1, i64 noundef 32, i1 noundef zeroext true, i1 noundef zeroext true, ptr noundef @.str.1, i32 noundef 290, ptr noundef @__func__.try_init_buf)
  store ptr %16, ptr %4, align 8
  %17 = icmp ne ptr %16, null
  br i1 %17, label %20, label %18

18:                                               ; preds = %15
  %19 = call i32 (ptr, ...) @error(ptr noundef @.str.9, ptr noundef @__func__.try_init_buf, i64 noundef 32)
  store ptr null, ptr %2, align 8
  store i32 1, ptr %5, align 4
  br label %45

20:                                               ; preds = %15
  %21 = load i32, ptr %3, align 4
  %22 = zext i32 %21 to i64
  %23 = call ptr @slurm_xcalloc(i64 noundef 1, i64 noundef %22, i1 noundef zeroext true, i1 noundef zeroext true, ptr noundef @.str.1, i32 noundef 296, ptr noundef @__func__.try_init_buf)
  %24 = load ptr, ptr %4, align 8
  %25 = getelementptr inbounds nuw %struct.buf_t, ptr %24, i32 0, i32 1
  store ptr %23, ptr %25, align 8
  %26 = icmp ne ptr %23, null
  br i1 %26, label %32, label %27

27:                                               ; preds = %20
  %28 = load i32, ptr %3, align 4
  %29 = call i32 (ptr, ...) @error(ptr noundef @.str.10, ptr noundef @__func__.try_init_buf, i32 noundef %28)
  %30 = load ptr, ptr %4, align 8
  %31 = getelementptr inbounds nuw %struct.buf_t, ptr %30, i32 0, i32 0
  store i32 -1112884550, ptr %31, align 8
  call void @slurm_xfree(ptr noundef %4)
  store ptr null, ptr %2, align 8
  store i32 1, ptr %5, align 4
  br label %45

32:                                               ; preds = %20
  %33 = load ptr, ptr %4, align 8
  %34 = getelementptr inbounds nuw %struct.buf_t, ptr %33, i32 0, i32 0
  store i32 1112884549, ptr %34, align 8
  %35 = load i32, ptr %3, align 4
  %36 = load ptr, ptr %4, align 8
  %37 = getelementptr inbounds nuw %struct.buf_t, ptr %36, i32 0, i32 2
  store i32 %35, ptr %37, align 8
  %38 = load ptr, ptr %4, align 8
  %39 = getelementptr inbounds nuw %struct.buf_t, ptr %38, i32 0, i32 3
  store i32 0, ptr %39, align 4
  %40 = load ptr, ptr %4, align 8
  %41 = getelementptr inbounds nuw %struct.buf_t, ptr %40, i32 0, i32 4
  store i8 0, ptr %41, align 8
  %42 = load ptr, ptr %4, align 8
  %43 = getelementptr inbounds nuw %struct.buf_t, ptr %42, i32 0, i32 5
  store i8 0, ptr %43, align 1
  %44 = load ptr, ptr %4, align 8
  store ptr %44, ptr %2, align 8
  store i32 1, ptr %5, align 4
  br label %45

45:                                               ; preds = %32, %27, %18, %12
  call void @llvm.lifetime.end.p0(i64 8, ptr %4) #9
  %46 = load ptr, ptr %2, align 8
  ret ptr %46
}