; Function Attrs: nounwind uwtable
define dso_local ptr @try_init_buf(i32 noundef %0) local_unnamed_addr #0 {
  %2 = alloca ptr, align 8
  call void @llvm.lifetime.start.p0(i64 8, ptr nonnull %2) #14
  %.not = icmp eq i32 %0, 0
  %spec.store.select = select i1 %.not, i32 16384, i32 %0
  %3 = icmp ugt i32 %spec.store.select, -65536
  br i1 %3, label %4, label %6

4:                                                ; preds = %1
  %5 = tail call i32 (ptr, ...) @error(ptr noundef nonnull @.str, ptr noundef nonnull @__func__.try_init_buf, i32 noundef %spec.store.select, i32 noundef -65536) #14
  br label %21

6:                                                ; preds = %1
  %7 = tail call ptr @slurm_xcalloc(i64 noundef 1, i64 noundef 32, i1 noundef zeroext true, i1 noundef zeroext true, ptr noundef nonnull @.str.1, i32 noundef 290, ptr noundef nonnull @__func__.try_init_buf) #14
  store ptr %7, ptr %2, align 8
  %.not6 = icmp eq ptr %7, null
  br i1 %.not6, label %8, label %10

8:                                                ; preds = %6
  %9 = tail call i32 (ptr, ...) @error(ptr noundef nonnull @.str.9, ptr noundef nonnull @__func__.try_init_buf, i64 noundef 32) #14
  br label %21

10:                                               ; preds = %6
  %11 = zext i32 %spec.store.select to i64
  %12 = tail call ptr @slurm_xcalloc(i64 noundef 1, i64 noundef %11, i1 noundef zeroext true, i1 noundef zeroext true, ptr noundef nonnull @.str.1, i32 noundef 296, ptr noundef nonnull @__func__.try_init_buf) #14
  %13 = getelementptr inbounds nuw i8, ptr %7, i64 8
  store ptr %12, ptr %13, align 8
  %.not7 = icmp eq ptr %12, null
  br i1 %.not7, label %14, label %16

14:                                               ; preds = %10
  %15 = tail call i32 (ptr, ...) @error(ptr noundef nonnull @.str.10, ptr noundef nonnull @__func__.try_init_buf, i32 noundef %spec.store.select) #14
  store i32 -1112884550, ptr %7, align 8
  call void @slurm_xfree(ptr noundef nonnull %2) #14
  br label %21

16:                                               ; preds = %10
  store i32 1112884549, ptr %7, align 8
  %17 = getelementptr inbounds nuw i8, ptr %7, i64 16
  store i32 %spec.store.select, ptr %17, align 8
  %18 = getelementptr inbounds nuw i8, ptr %7, i64 20
  store i32 0, ptr %18, align 4
  %19 = getelementptr inbounds nuw i8, ptr %7, i64 24
  store i8 0, ptr %19, align 8
  %20 = getelementptr inbounds nuw i8, ptr %7, i64 25
  store i8 0, ptr %20, align 1
  br label %21

21:                                               ; preds = %16, %14, %8, %4
  %.0 = phi ptr [ null, %4 ], [ %7, %16 ], [ null, %14 ], [ null, %8 ]
  call void @llvm.lifetime.end.p0(i64 8, ptr nonnull %2) #14
  ret ptr %.0
}